LIBRARY tier0_360.dll
EXPORTS
??4CThreadLocalBase@@QAAAAV0@ABV0@@Z               @1 
?TryLock@CThreadMutex@@QBA_NXZ                     @2 
??BCThreadSyncObject@@QAAPAXXZ                     @3 
??1CThreadSemaphore@@QAA@XZ                        @4 
?Lock@CThreadFullMutex@@QAAXXZ                     @5 
?Lock@CThreadFullMutex@@QAAXI@Z                    @6 
?Unlock@CThreadFullMutex@@QAAXXZ                   @7 
?AssertOwnedByCurrentThread@CThreadFullMutex@@QAA_NXZ @8 
?SetTrace@CThreadFullMutex@@QAAX_N@Z               @9 
??1CThreadFullMutex@@QAA@XZ                        @10 
??_FCThreadFullMutex@@QAAXXZ                       @11 
??1CThreadEvent@@QAA@XZ                            @12 
??_FCThreadEvent@@QAAXXZ                           @13 
?LockForWrite@CThreadRWLock@@QBAXXZ                @14 
?UnlockWrite@CThreadRWLock@@QBAXXZ                 @15 
??1CThreadRWLock@@QAA@XZ                           @16 
?LockForRead@CThreadSpinRWLock@@QBAXXZ             @17 
?UnlockRead@CThreadSpinRWLock@@QBAXXZ              @18 
?UnlockWrite@CThreadSpinRWLock@@QBAXXZ             @19 
??4CThreadSpinRWLock@@QAAAAV0@ABV0@@Z              @20 
?CalcStackDepth@CThread@@QAAIPAX@Z                 @21 
??1CWorkerThread@@UAA@XZ                           @22 
?Lock@CThreadMutex@@QAAXXZ                         @23 
?Unlock@CThreadMutex@@QAAXXZ                       @24 
?AssertOwnedByCurrentThread@CThreadMutex@@QAA_NXZ  @25 
?SetTrace@CThreadMutex@@QAAX_N@Z                   @26 
??0CThreadRWLock@@QAA@XZ                           @27 
?LockForRead@CThreadRWLock@@QAAXXZ                 @28 
?UnlockRead@CThreadRWLock@@QAAXXZ                  @29 
?AssignIf@CThreadSpinRWLock@@AAA_NABULockInfo_t@1@0@Z @30 
?TryLockForWrite@CThreadSpinRWLock@@AAA_NI@Z       @31 
?oldValue@?4??TryLockForWrite@CThreadSpinRWLock@@AAA_NI@Z@4ULockInfo_t@2@B @32 DATA
?Lock@CThreadMutex@@QBAXXZ                         @33 
?Unlock@CThreadMutex@@QBAXXZ                       @34 
?LockForRead@CThreadRWLock@@QBAXXZ                 @35 
?UnlockRead@CThreadRWLock@@QBAXXZ                  @36 
??0CThreadSpinRWLock@@QAA@XZ                       @37 
?TryLockForRead@CThreadSpinRWLock@@QAA_NXZ         @38 
ShouldUseNewAssertDialog                           @39 
DoNewAssertDialog                                  @40 
?TryLockForRead@CThreadSpinRWLock@@QBA_NXZ         @41 
?TryLockForWrite@CThreadSpinRWLock@@QAA_NXZ        @42 
?LockForWrite@CThreadSpinRWLock@@QAAXXZ            @43 
?TryLockForWrite@CThreadSpinRWLock@@QBA_NXZ        @44 
?LockForWrite@CThreadSpinRWLock@@QBAXXZ            @45 
CommandLine_Tier0                                  @46 
GetCPUInformation                                  @47 
??4CThreadLocalBase@@QAAAAV0@ABV0@@Z               @48 
?TryLock@CThreadMutex@@QBA_NXZ                     @49 
??BCThreadSyncObject@@QAAPAXXZ                     @50 
??1CThreadSemaphore@@QAA@XZ                        @51 
?Lock@CThreadFullMutex@@QAAXXZ                     @52 
?Lock@CThreadFullMutex@@QAAXI@Z                    @53 
?Unlock@CThreadFullMutex@@QAAXXZ                   @54 
?AssertOwnedByCurrentThread@CThreadFullMutex@@QAA_NXZ @55 
?SetTrace@CThreadFullMutex@@QAAX_N@Z               @56 
??1CThreadFullMutex@@QAA@XZ                        @57 
??_FCThreadFullMutex@@QAAXXZ                       @58 
??1CThreadEvent@@QAA@XZ                            @59 
??_FCThreadEvent@@QAAXXZ                           @60 
?LockForWrite@CThreadRWLock@@QBAXXZ                @61 
?UnlockWrite@CThreadRWLock@@QBAXXZ                 @62 
??1CThreadRWLock@@QAA@XZ                           @63 
?LockForRead@CThreadSpinRWLock@@QBAXXZ             @64 
?UnlockRead@CThreadSpinRWLock@@QBAXXZ              @65 
?UnlockWrite@CThreadSpinRWLock@@QBAXXZ             @66 
??4CThreadSpinRWLock@@QAAAAV0@ABV0@@Z              @67 
?CalcStackDepth@CThread@@QAAIPAX@Z                 @68 
??1CWorkerThread@@UAA@XZ                           @69 
?Lock@CThreadMutex@@QAAXXZ                         @70 
?Unlock@CThreadMutex@@QAAXXZ                       @71 
?AssertOwnedByCurrentThread@CThreadMutex@@QAA_NXZ  @72 
?SetTrace@CThreadMutex@@QAAX_N@Z                   @73 
??0CThreadRWLock@@QAA@XZ                           @74 
?LockForRead@CThreadRWLock@@QAAXXZ                 @75 
?UnlockRead@CThreadRWLock@@QAAXXZ                  @76 
?AssignIf@CThreadSpinRWLock@@AAA_NABULockInfo_t@1@0@Z @77 
?TryLockForWrite@CThreadSpinRWLock@@AAA_NI@Z       @78 
?oldValue@?4??TryLockForWrite@CThreadSpinRWLock@@AAA_NI@Z@4ULockInfo_t@2@B @79 DATA
SpewOutputFunc                                     @80 
GetSpewOutputFunc                                  @81 
_AssertValidReadPtr                                @82 
_AssertValidWritePtr                               @83 
_AssertValidReadWritePtr                           @84 
AssertValidStringPtr                               @85 
?ConMsg@@YAXPBDZZ                                  @86 
Plat_SimpleLog                                     @87 
COM_TimestampedLog                                 @88 
?Lock@CThreadMutex@@QBAXXZ                         @89 
?Unlock@CThreadMutex@@QBAXXZ                       @90 
?LockForRead@CThreadRWLock@@QBAXXZ                 @91 
?UnlockRead@CThreadRWLock@@QBAXXZ                  @92 
??0CThreadSpinRWLock@@QAA@XZ                       @93 
?TryLockForRead@CThreadSpinRWLock@@QAA_NXZ         @94 
GetSpewOutputGroup                                 @95 
GetSpewOutputLevel                                 @96 
GetSpewOutputColor                                 @97 
_SpewInfo                                          @98 
IsSpewActive                                       @99 
_SpewMessage                                       @100 
_DSpewMessage                                      @101 
ColorSpewMessage                                   @102 
Msg                                                @103 
DMsg                                               @104 
Warning                                            @105 
DWarning                                           @106 
Log                                                @107 
DLog                                               @108 
Error                                              @109 
DevMsg                                             @110 
DevWarning                                         @111 
DevLog                                             @112 
?DevMsg@@YAXPBDZZ                                  @113 
?DevWarning@@YAXPBDZZ                              @114 
?DevLog@@YAXPBDZZ                                  @115 
ConColorMsg                                        @116 
ConMsg                                             @117 
ConWarning                                         @118 
ConLog                                             @119 
?ConColorMsg@@YAXABVColor@@PBDZZ                   @120 
?ConWarning@@YAXPBDZZ                              @121 
?ConLog@@YAXPBDZZ                                  @122 
ConDColorMsg                                       @123 
ConDMsg                                            @124 
ConDWarning                                        @125 
ConDLog                                            @126 
NetMsg                                             @127 
NetWarning                                         @128 
NetLog                                             @129 
SpewActivate                                       @130 
CrackSmokingCompiler                               @131 
?TryLockForRead@CThreadSpinRWLock@@QBA_NXZ         @132 
?TryLockForWrite@CThreadSpinRWLock@@QAA_NXZ        @133 
?LockForWrite@CThreadSpinRWLock@@QAAXXZ            @134 
_ExitOnFatalAssert                                 @135 
?TryLockForWrite@CThreadSpinRWLock@@QBA_NXZ        @136 
?LockForWrite@CThreadSpinRWLock@@QBAXXZ            @137 
g_ClockSpeed                                       @138 DATA
g_dwClockSpeed                                     @139 DATA
g_ClockSpeedMicrosecondsMultiplier                 @140 DATA
g_ClockSpeedMillisecondsMultiplier                 @141 DATA
g_ClockSpeedSecondsMultiplier                      @142 DATA
MemAllocScratch                                    @143 
MemFreeScratch                                     @144 
??4CThreadLocalBase@@QAAAAV0@ABV0@@Z               @145 
?TryLock@CThreadMutex@@QBA_NXZ                     @146 
??BCThreadSyncObject@@QAAPAXXZ                     @147 
??1CThreadSemaphore@@QAA@XZ                        @148 
?Lock@CThreadFullMutex@@QAAXXZ                     @149 
?Lock@CThreadFullMutex@@QAAXI@Z                    @150 
?Unlock@CThreadFullMutex@@QAAXXZ                   @151 
?AssertOwnedByCurrentThread@CThreadFullMutex@@QAA_NXZ @152 
?SetTrace@CThreadFullMutex@@QAAX_N@Z               @153 
??1CThreadFullMutex@@QAA@XZ                        @154 
??_FCThreadFullMutex@@QAAXXZ                       @155 
??1CThreadEvent@@QAA@XZ                            @156 
??_FCThreadEvent@@QAAXXZ                           @157 
?LockForWrite@CThreadRWLock@@QBAXXZ                @158 
?UnlockWrite@CThreadRWLock@@QBAXXZ                 @159 
??1CThreadRWLock@@QAA@XZ                           @160 
?LockForRead@CThreadSpinRWLock@@QBAXXZ             @161 
?UnlockRead@CThreadSpinRWLock@@QBAXXZ              @162 
?UnlockWrite@CThreadSpinRWLock@@QBAXXZ             @163 
??4CThreadSpinRWLock@@QAAAAV0@ABV0@@Z              @164 
?CalcStackDepth@CThread@@QAAIPAX@Z                 @165 
??1CWorkerThread@@UAA@XZ                           @166 
?Lock@CThreadMutex@@QAAXXZ                         @167 
?Unlock@CThreadMutex@@QAAXXZ                       @168 
?AssertOwnedByCurrentThread@CThreadMutex@@QAA_NXZ  @169 
?SetTrace@CThreadMutex@@QAAX_N@Z                   @170 
??0CThreadRWLock@@QAA@XZ                           @171 
?LockForRead@CThreadRWLock@@QAAXXZ                 @172 
?UnlockRead@CThreadRWLock@@QAAXXZ                  @173 
?AssignIf@CThreadSpinRWLock@@AAA_NABULockInfo_t@1@0@Z @174 
?TryLockForWrite@CThreadSpinRWLock@@AAA_NI@Z       @175 
?oldValue@?4??TryLockForWrite@CThreadSpinRWLock@@AAA_NI@Z@4ULockInfo_t@2@B @176 DATA
?Lock@CThreadMutex@@QBAXXZ                         @177 
?Unlock@CThreadMutex@@QBAXXZ                       @178 
?LockForRead@CThreadRWLock@@QBAXXZ                 @179 
?UnlockRead@CThreadRWLock@@QBAXXZ                  @180 
??0CThreadSpinRWLock@@QAA@XZ                       @181 
?TryLockForRead@CThreadSpinRWLock@@QAA_NXZ         @182 
?TryLockForRead@CThreadSpinRWLock@@QBA_NXZ         @183 
?TryLockForWrite@CThreadSpinRWLock@@QAA_NXZ        @184 
?LockForWrite@CThreadSpinRWLock@@QAAXXZ            @185 
?TryLockForWrite@CThreadSpinRWLock@@QBA_NXZ        @186 
?LockForWrite@CThreadSpinRWLock@@QBAXXZ            @187 
g_pMemAlloc                                        @188 DATA
??4CThreadLocalBase@@QAAAAV0@ABV0@@Z               @189 
?TryLock@CThreadMutex@@QBA_NXZ                     @190 
??BCThreadSyncObject@@QAAPAXXZ                     @191 
??1CThreadSemaphore@@QAA@XZ                        @192 
?Lock@CThreadFullMutex@@QAAXXZ                     @193 
?Lock@CThreadFullMutex@@QAAXI@Z                    @194 
?Unlock@CThreadFullMutex@@QAAXXZ                   @195 
?AssertOwnedByCurrentThread@CThreadFullMutex@@QAA_NXZ @196 
?SetTrace@CThreadFullMutex@@QAAX_N@Z               @197 
??1CThreadFullMutex@@QAA@XZ                        @198 
??_FCThreadFullMutex@@QAAXXZ                       @199 
??1CThreadEvent@@QAA@XZ                            @200 
??_FCThreadEvent@@QAAXXZ                           @201 
?LockForWrite@CThreadRWLock@@QBAXXZ                @202 
?UnlockWrite@CThreadRWLock@@QBAXXZ                 @203 
??1CThreadRWLock@@QAA@XZ                           @204 
?LockForRead@CThreadSpinRWLock@@QBAXXZ             @205 
?UnlockRead@CThreadSpinRWLock@@QBAXXZ              @206 
?UnlockWrite@CThreadSpinRWLock@@QBAXXZ             @207 
??4CThreadSpinRWLock@@QAAAAV0@ABV0@@Z              @208 
?CalcStackDepth@CThread@@QAAIPAX@Z                 @209 
??1CWorkerThread@@UAA@XZ                           @210 
?Lock@CThreadMutex@@QAAXXZ                         @211 
?Unlock@CThreadMutex@@QAAXXZ                       @212 
?AssertOwnedByCurrentThread@CThreadMutex@@QAA_NXZ  @213 
?SetTrace@CThreadMutex@@QAAX_N@Z                   @214 
??0CThreadRWLock@@QAA@XZ                           @215 
?LockForRead@CThreadRWLock@@QAAXXZ                 @216 
?UnlockRead@CThreadRWLock@@QAAXXZ                  @217 
?AssignIf@CThreadSpinRWLock@@AAA_NABULockInfo_t@1@0@Z @218 
?TryLockForWrite@CThreadSpinRWLock@@AAA_NI@Z       @219 
?oldValue@?4??TryLockForWrite@CThreadSpinRWLock@@AAA_NI@Z@4ULockInfo_t@2@B @220 DATA
InitPME                                            @221 
ShutdownPME                                        @222 
?Lock@CThreadMutex@@QBAXXZ                         @223 
?Unlock@CThreadMutex@@QBAXXZ                       @224 
?LockForRead@CThreadRWLock@@QBAXXZ                 @225 
?UnlockRead@CThreadRWLock@@QBAXXZ                  @226 
??0CThreadSpinRWLock@@QAA@XZ                       @227 
?TryLockForRead@CThreadSpinRWLock@@QAA_NXZ         @228 
?TryLockForRead@CThreadSpinRWLock@@QBA_NXZ         @229 
?TryLockForWrite@CThreadSpinRWLock@@QAA_NXZ        @230 
?LockForWrite@CThreadSpinRWLock@@QAAXXZ            @231 
?TryLockForWrite@CThreadSpinRWLock@@QBA_NXZ        @232 
?LockForWrite@CThreadSpinRWLock@@QBAXXZ            @233 
WriteMiniDump                                      @234 
Plat_FloatTime                                     @235 
Plat_MSTime                                        @236 
GetCurrentDate                                     @237 
vtune                                              @238 
Plat_IsInDebugSession                              @239 
Plat_DebugString                                   @240 
Plat_GetCommandLine                                @241 
Plat_GetCommandLineA                               @242 
??4CThreadLocalBase@@QAAAAV0@ABV0@@Z               @243 
?TryLock@CThreadMutex@@QBA_NXZ                     @244 
??BCThreadSyncObject@@QAAPAXXZ                     @245 
??1CThreadSemaphore@@QAA@XZ                        @246 
?Lock@CThreadFullMutex@@QAAXXZ                     @247 
?Lock@CThreadFullMutex@@QAAXI@Z                    @248 
?Unlock@CThreadFullMutex@@QAAXXZ                   @249 
?AssertOwnedByCurrentThread@CThreadFullMutex@@QAA_NXZ @250 
?SetTrace@CThreadFullMutex@@QAAX_N@Z               @251 
??1CThreadFullMutex@@QAA@XZ                        @252 
??_FCThreadFullMutex@@QAAXXZ                       @253 
??1CThreadEvent@@QAA@XZ                            @254 
??_FCThreadEvent@@QAAXXZ                           @255 
?LockForWrite@CThreadRWLock@@QBAXXZ                @256 
?UnlockWrite@CThreadRWLock@@QBAXXZ                 @257 
??1CThreadRWLock@@QAA@XZ                           @258 
?LockForRead@CThreadSpinRWLock@@QBAXXZ             @259 
?UnlockRead@CThreadSpinRWLock@@QBAXXZ              @260 
?UnlockWrite@CThreadSpinRWLock@@QBAXXZ             @261 
??4CThreadSpinRWLock@@QAAAAV0@ABV0@@Z              @262 
?CalcStackDepth@CThread@@QAAIPAX@Z                 @263 
??1CWorkerThread@@UAA@XZ                           @264 
?Lock@CThreadMutex@@QAAXXZ                         @265 
?Unlock@CThreadMutex@@QAAXXZ                       @266 
?AssertOwnedByCurrentThread@CThreadMutex@@QAA_NXZ  @267 
?SetTrace@CThreadMutex@@QAAX_N@Z                   @268 
??0CThreadRWLock@@QAA@XZ                           @269 
?LockForRead@CThreadRWLock@@QAAXXZ                 @270 
?UnlockRead@CThreadRWLock@@QAAXXZ                  @271 
?AssignIf@CThreadSpinRWLock@@AAA_NABULockInfo_t@1@0@Z @272 
?TryLockForWrite@CThreadSpinRWLock@@AAA_NI@Z       @273 
?oldValue@?4??TryLockForWrite@CThreadSpinRWLock@@AAA_NI@Z@4ULockInfo_t@2@B @274 DATA
?GetBudgetGroupID@CVProfNode@@QAAHXZ               @275 
?SetBudgetGroupID@CVProfNode@@QAAXH@Z              @276 
?SetClientData@CVProfNode@@QAAXH@Z                 @277 
?GetClientData@CVProfNode@@QBAHXZ                  @278 
?SetUniqueNodeID@CVProfNode@@AAAXH@Z               @279 
?GetUniqueNodeID@CVProfNode@@ABAHXZ                @280 
?EnableL2andLHS@CVProfNode@@QAAX_N@Z               @281 
?IsL2andLHSEnabled@CVProfNode@@QAA_NXZ             @282 
??4CVProfNode@@QAAAAV0@ABV0@@Z                     @283 
?EnableVTuneGroup@CVProfile@@QAAXPBD@Z             @284 
?DisableVTuneGroup@CVProfile@@QAAXXZ               @285 
?NumFramesSampled@CVProfile@@QAAHXZ                @286 
?BudgetGroupNameToBudgetGroupIDNoCreate@CVProfile@@QAAHPBD@Z @287 
?HideBudgetGroup@CVProfile@@QAAXPBD_N@Z            @288 
?PMEInitialized@CVProfile@@QAAX_N@Z                @289 
?PMEEnable@CVProfile@@QAAX_N@Z                     @290 
?VTuneGroupEnabled@CVProfile@@IAA_NXZ              @291 
?VTuneGroupID@CVProfile@@IAAHXZ                    @292 
??4CVProfile@@QAAAAV0@ABV0@@Z                      @293 
?PushGroup@CVProfile@@QAAXH@Z                      @294 
?PopGroup@CVProfile@@QAAXXZ                        @295 
??1CVProfNode@@QAA@XZ                              @296 
?GetParent@CVProfNode@@QAAPAV1@XZ                  @297 
?GetSibling@CVProfNode@@QAAPAV1@XZ                 @298 
?GetChild@CVProfNode@@QAAPAV1@XZ                   @299 
?GetName@CVProfNode@@QAAPBDXZ                      @300 
?GetTotalCalls@CVProfNode@@QAAHXZ                  @301 
?GetCurCalls@CVProfNode@@QAAHXZ                    @302 
?GetPrevCalls@CVProfNode@@QAAHXZ                   @303 
?GetPrevL2CacheMissLessChildren@CVProfNode@@QAAHXZ @304 
?GetPrevLoadHitStoreLessChildren@CVProfNode@@QAAHXZ @305 
?GetL2CacheMisses@CVProfNode@@QAAHXZ               @306 
?GetLoadHitStores@CVProfNode@@QAAHXZ               @307 
?IsEnabled@CVProfile@@QBA_NXZ                      @308 
?GetDetailLevel@CVProfile@@QBAHXZ                  @309 
?AtRoot@CVProfile@@QBA_NXZ                         @310 
?Stop@CVProfile@@QAAXXZ                            @311 
?EnterScope@CVProfile@@QAAXPBDH0_NH@Z              @312 
?EnterScope@CVProfile@@QAAXPBDH0_N@Z               @313 
?ExitScope@CVProfile@@QAAXXZ                       @314 
?Pause@CVProfile@@QAAXXZ                           @315 
?Resume@CVProfile@@QAAXXZ                          @316 
?Reset@CVProfile@@QAAXXZ                           @317 
?ResetPeaks@CVProfile@@QAAXXZ                      @318 
?GetRoot@CVProfile@@QAAPAVCVProfNode@@XZ           @319 
?GetBudgetGroupName@CVProfile@@QAAPBDH@Z           @320 
?GetBudgetGroupFlags@CVProfile@@QBAHH@Z            @321 
?GetCPUTraceMode@CVProfile@@QAA?AW4CPUTraceState@1@XZ @322 
?SetCPUTraceEnabled@CVProfile@@QAAXW4CPUTraceState@1@@Z @323 
?IncrementMultiTraceIndex@CVProfile@@QAAXXZ        @324 
?GetMultiTraceIndex@CVProfile@@QAAIXZ              @325 
?Lock@CThreadMutex@@QBAXXZ                         @326 
?Unlock@CThreadMutex@@QBAXXZ                       @327 
?LockForRead@CThreadRWLock@@QBAXXZ                 @328 
?UnlockRead@CThreadRWLock@@QBAXXZ                  @329 
??0CThreadSpinRWLock@@QAA@XZ                       @330 
?TryLockForRead@CThreadSpinRWLock@@QAA_NXZ         @331 
?UsePME@CVProfile@@QAA_NXZ                         @332 
?GetPrevSibling@CVProfNode@@QAAPAV1@XZ             @333 
?GetTotalTime@CVProfNode@@QAANXZ                   @334 
?GetCurTime@CVProfNode@@QAANXZ                     @335 
?GetPrevTime@CVProfNode@@QAANXZ                    @336 
?GetPeakTime@CVProfNode@@QAANXZ                    @337 
?GetTotalTimeLessChildren@CVProfNode@@QAANXZ       @338 
?GetCurTimeLessChildren@CVProfNode@@QAANXZ         @339 
?GetPrevTimeLessChildren@CVProfNode@@QAANXZ        @340 
?Start@CVProfile@@QAAXXZ                           @341 
?MarkFrame@CVProfile@@QAAXXZ                       @342 
?GetTotalTimeSampled@CVProfile@@QAANXZ             @343 
?GetPeakFrameTime@CVProfile@@QAANXZ                @344 
?GetTimeLastFrame@CVProfile@@QAANXZ                @345 
?TryLockForRead@CThreadSpinRWLock@@QBA_NXZ         @346 
?TryLockForWrite@CThreadSpinRWLock@@QAA_NXZ        @347 
?LockForWrite@CThreadSpinRWLock@@QAAXXZ            @348 
?ClearPrevTime@CVProfNode@@QAAXXZ                  @349 
?TryLockForWrite@CThreadSpinRWLock@@QBA_NXZ        @350 
?LockForWrite@CThreadSpinRWLock@@QBAXXZ            @351 
??0CVProfNode@@QAA@PBDHPAV0@0H@Z                   @352 
??4CThreadLocalBase@@QAAAAV0@ABV0@@Z               @353 
?TryLock@CThreadMutex@@QBA_NXZ                     @354 
??BCThreadSyncObject@@QAAPAXXZ                     @355 
??1CThreadSemaphore@@QAA@XZ                        @356 
?Lock@CThreadFullMutex@@QAAXXZ                     @357 
?Lock@CThreadFullMutex@@QAAXI@Z                    @358 
?Unlock@CThreadFullMutex@@QAAXXZ                   @359 
?AssertOwnedByCurrentThread@CThreadFullMutex@@QAA_NXZ @360 
?SetTrace@CThreadFullMutex@@QAAX_N@Z               @361 
??1CThreadFullMutex@@QAA@XZ                        @362 
??_FCThreadFullMutex@@QAAXXZ                       @363 
??1CThreadEvent@@QAA@XZ                            @364 
??_FCThreadEvent@@QAAXXZ                           @365 
?LockForWrite@CThreadRWLock@@QBAXXZ                @366 
?UnlockWrite@CThreadRWLock@@QBAXXZ                 @367 
??1CThreadRWLock@@QAA@XZ                           @368 
?LockForRead@CThreadSpinRWLock@@QBAXXZ             @369 
?UnlockRead@CThreadSpinRWLock@@QBAXXZ              @370 
?UnlockWrite@CThreadSpinRWLock@@QBAXXZ             @371 
??4CThreadSpinRWLock@@QAAAAV0@ABV0@@Z              @372 
?CalcStackDepth@CThread@@QAAIPAX@Z                 @373 
??1CWorkerThread@@UAA@XZ                           @374 
?Lock@CThreadMutex@@QAAXXZ                         @375 
?Unlock@CThreadMutex@@QAAXXZ                       @376 
?AssertOwnedByCurrentThread@CThreadMutex@@QAA_NXZ  @377 
?SetTrace@CThreadMutex@@QAAX_N@Z                   @378 
??0CThreadRWLock@@QAA@XZ                           @379 
?LockForRead@CThreadRWLock@@QAAXXZ                 @380 
?UnlockRead@CThreadRWLock@@QAAXXZ                  @381 
?AssignIf@CThreadSpinRWLock@@AAA_NABULockInfo_t@1@0@Z @382 
?TryLockForWrite@CThreadSpinRWLock@@AAA_NI@Z       @383 
?oldValue@?4??TryLockForWrite@CThreadSpinRWLock@@AAA_NI@Z@4ULockInfo_t@2@B @384 DATA
ReportProgress                                     @385 
InstallProgressReportHandler                       @386 
?Lock@CThreadMutex@@QBAXXZ                         @387 
?Unlock@CThreadMutex@@QBAXXZ                       @388 
?LockForRead@CThreadRWLock@@QBAXXZ                 @389 
?UnlockRead@CThreadRWLock@@QBAXXZ                  @390 
??0CThreadSpinRWLock@@QAA@XZ                       @391 
?TryLockForRead@CThreadSpinRWLock@@QAA_NXZ         @392 
?TryLockForRead@CThreadSpinRWLock@@QBA_NXZ         @393 
?TryLockForWrite@CThreadSpinRWLock@@QAA_NXZ        @394 
?LockForWrite@CThreadSpinRWLock@@QAAXXZ            @395 
?TryLockForWrite@CThreadSpinRWLock@@QBA_NXZ        @396 
?LockForWrite@CThreadSpinRWLock@@QBAXXZ            @397 
Plat_VerifyHardwareKey                             @398 
Plat_VerifyHardwareKeyDriver                       @399 
Plat_VerifyHardwareKeyPrompt                       @400 
Plat_FastVerifyHardwareKey                         @401 
Plat_GetMemPageSize                                @402 
Plat_GetPagedPoolInfo                              @403 
??4CThreadLocalBase@@QAAAAV0@ABV0@@Z               @404 
??BCThreadSyncObject@@QAAPAXXZ                     @405 
?AssertOwnedByCurrentThread@CThreadFullMutex@@QAA_NXZ @406 
?SetTrace@CThreadFullMutex@@QAAX_N@Z               @407 
??4CThreadSpinRWLock@@QAAAAV0@ABV0@@Z              @408 
?CalcStackDepth@CThread@@QAAIPAX@Z                 @409 
?Lock@CThreadMutex@@QAAXXZ                         @410 
?Unlock@CThreadMutex@@QAAXXZ                       @411 
?AssertOwnedByCurrentThread@CThreadMutex@@QAA_NXZ  @412 
?SetTrace@CThreadMutex@@QAAX_N@Z                   @413 
InitPME                                            @414 
ShutdownPME                                        @415 
?CreateSimpleThread@@YAPAUThreadHandle_t__@@P6AIPAX@Z0PAKI@Z @416 
CreateSimpleThread                                 @417 
ReleaseThreadHandle                                @418 
ThreadSleep                                        @419 
ThreadGetCurrentId                                 @420 
ThreadGetCurrentHandle                             @421 
ThreadGetPriority                                  @422 
ThreadSetPriority                                  @423 
ThreadSetAffinity                                  @424 
ThreadInMainThread                                 @425 
DeclareCurrentThreadIsMainThread                   @426 
ThreadJoin                                         @427 
ThreadSetDebugName                                 @428 
ThreadWaitForObjects                               @429 
SetThreadedLoadLibraryFunc                         @430 
GetThreadedLoadLibraryFunc                         @431 
??0CThreadSyncObject@@IAA@XZ                       @432 
??1CThreadSyncObject@@QAA@XZ                       @433 
??7CThreadSyncObject@@QBA_NXZ                      @434 
?AssertUseable@CThreadSyncObject@@IAAXXZ           @435 
?Wait@CThreadSyncObject@@QAA_NI@Z                  @436 
??0CThreadEvent@@QAA@_N@Z                          @437 
?Set@CThreadEvent@@QAA_NXZ                         @438 
?Reset@CThreadEvent@@QAA_NXZ                       @439 
?Wait@CThreadEvent@@QAA_NI@Z                       @440 
??0CThreadSemaphore@@QAA@JJ@Z                      @441 
?Release@CThreadSemaphore@@QAA_NJPAJ@Z             @442 
??0CThreadFullMutex@@QAA@_NPBD@Z                   @443 
?Release@CThreadFullMutex@@QAA_NXZ                 @444 
??0CThreadLocalBase@@QAA@XZ                        @445 
??1CThreadLocalBase@@QAA@XZ                        @446 
?Get@CThreadLocalBase@@QBAPAXXZ                    @447 
?Set@CThreadLocalBase@@QAAXPAX@Z                   @448 
ThreadInterlockedIncrement                         @449 
ThreadInterlockedDecrement                         @450 
ThreadInterlockedExchange                          @451 
ThreadInterlockedExchangeAdd                       @452 
ThreadInterlockedCompareExchange                   @453 
ThreadInterlockedAssignIf                          @454 
ThreadInterlockedExchangePointer                   @455 
ThreadInterlockedCompareExchangePointer            @456 
ThreadInterlockedAssignPointerIf                   @457 
ThreadInterlockedCompareExchange64                 @458 
ThreadInterlockedAssignIf64                        @459 
ThreadInterlockedIncrement64                       @460 
ThreadInterlockedDecrement64                       @461 
ThreadInterlockedExchange64                        @462 
ThreadInterlockedExchangeAdd64                     @463 
??0CThreadMutex@@QAA@XZ                            @464 
??1CThreadMutex@@QAA@XZ                            @465 
?TryLock@CThreadMutex@@QAA_NXZ                     @466 
??0CThread@@QAA@XZ                                 @467 
??_7CThread@@6B@                                   @468 DATA
?Start@CThread@@UAA_NI@Z                           @469 
?Init@CThread@@MAA_NXZ                             @470 
?OnExit@CThread@@MAAXXZ                            @471 
?WaitForCreateComplete@CThread@@MAA_NPAVCThreadEvent@@@Z @472 
?GetThreadProc@CThread@@MAAP6AIPAX@ZXZ             @473 
?IsAlive@CThread@@QAA_NXZ                          @474 
?Join@CThread@@QAA_NI@Z                            @475 
?GetThreadHandle@CThread@@QAAPAXXZ                 @476 
?GetThreadId@CThread@@QAAIXZ                       @477 
?GetResult@CThread@@QAAHXZ                         @478 
?GetPriority@CThread@@QBAHXZ                       @479 
?SetPriority@CThread@@QAA_NH@Z                     @480 
?Suspend@CThread@@QAAIXZ                           @481 
?Resume@CThread@@QAAIXZ                            @482 
?Terminate@CThread@@QAA_NH@Z                       @483 
?Yield@CThread@@SAXXZ                              @484 
?Sleep@CThread@@SAXI@Z                             @485 
?GetCallHandle@CWorkerThread@@QAAPAXXZ             @486 
?GetCallParam@CWorkerThread@@QBAIXZ                @487 
?BoostPriority@CWorkerThread@@QAAHXZ               @488 
?WaitForReply@CWorkerThread@@IAAHIP6AIIPBQAXHI@Z@Z @489 
?WaitForCall@CWorkerThread@@QAA_NIPAI@Z            @490 
?Reply@CWorkerThread@@QAAXI@Z                      @491 
?Lock@CThreadMutex@@QBAXXZ                         @492 
?Unlock@CThreadMutex@@QBAXXZ                       @493 
?TryLock@CThreadMutex@@QBA_NXZ                     @494 
??1CThreadSemaphore@@QAA@XZ                        @495 
?Lock@CThreadFullMutex@@QAAXXZ                     @496 
?Lock@CThreadFullMutex@@QAAXI@Z                    @497 
?Unlock@CThreadFullMutex@@QAAXXZ                   @498 
??1CThreadFullMutex@@QAA@XZ                        @499 
??_FCThreadFullMutex@@QAAXXZ                       @500 
??1CThreadEvent@@QAA@XZ                            @501 
??_FCThreadEvent@@QAAXXZ                           @502 
??1CThreadRWLock@@QAA@XZ                           @503 
??0CThreadSpinRWLock@@QAA@XZ                       @504 
??0CThreadRWLock@@QAA@XZ                           @505 
?AssignIf@CThreadSpinRWLock@@AAA_NABULockInfo_t@1@0@Z @506 
?TryLockForWrite@CThreadSpinRWLock@@AAA_NI@Z       @507 
?oldValue@?4??TryLockForWrite@CThreadSpinRWLock@@AAA_NI@Z@4ULockInfo_t@2@B @508 DATA
?TryLockForRead@CThreadSpinRWLock@@QAA_NXZ         @509 
?Check@CThreadEvent@@QAA_NXZ                       @510 
?Lock@CThreadFastMutex@@ACAXII@Z                   @511 
?SpinLockForWrite@CThreadSpinRWLock@@AAAXI@Z       @512 
?LockForRead@CThreadSpinRWLock@@QAAXXZ             @513 
?UnlockRead@CThreadSpinRWLock@@QAAXXZ              @514 
?GetName@CThread@@QAAPBDXZ                         @515 
?SetName@CThread@@QAAXPBD@Z                        @516 
?GetCurrentCThread@CThread@@SAPAV1@XZ              @517 
?Call@CWorkerThread@@IAAHII_NP6AIIPBQAXHI@Z@Z      @518 
?WaitForReply@CWorkerThread@@QAAHI@Z               @519 
?WaitForCall@CWorkerThread@@QAA_NPAI@Z             @520 
?PeekCall@CWorkerThread@@QAA_NPAI@Z                @521 
?TryLockForRead@CThreadSpinRWLock@@QBA_NXZ         @522 
?LockForRead@CThreadSpinRWLock@@QBAXXZ             @523 
?UnlockRead@CThreadSpinRWLock@@QBAXXZ              @524 
?UnlockRead@CThreadRWLock@@QAAXXZ                  @525 
?TryLockForWrite@CThreadSpinRWLock@@QAA_NXZ        @526 
?LockForWrite@CThreadSpinRWLock@@QAAXXZ            @527 
?WaitForRead@CThreadRWLock@@AAAXXZ                 @528 
?LockForWrite@CThreadRWLock@@QAAXXZ                @529 
?UnlockWrite@CThreadRWLock@@QAAXXZ                 @530 
?UnlockWrite@CThreadSpinRWLock@@QAAXXZ             @531 
?Stop@CThread@@QAAXH@Z                             @532 
?ThreadProc@CThread@@CAIPAX@Z                      @533 
?CallWorker@CWorkerThread@@QAAHII_N@Z              @534 
?CallMaster@CWorkerThread@@QAAHII@Z                @535 
?UnlockRead@CThreadRWLock@@QBAXXZ                  @536 
?LockForWrite@CThreadRWLock@@QBAXXZ                @537 
?UnlockWrite@CThreadRWLock@@QBAXXZ                 @538 
?TryLockForWrite@CThreadSpinRWLock@@QBA_NXZ        @539 
?LockForWrite@CThreadSpinRWLock@@QBAXXZ            @540 
?UnlockWrite@CThreadSpinRWLock@@QBAXXZ             @541 
?LockForRead@CThreadRWLock@@QAAXXZ                 @542 
??1CThread@@UAA@XZ                                 @543 
??0CWorkerThread@@QAA@XZ                           @544 
??_7CWorkerThread@@6B@                             @545 DATA
?LockForRead@CThreadRWLock@@QBAXXZ                 @546 
??1CWorkerThread@@UAA@XZ                           @547 
??4CThreadLocalBase@@QAAAAV0@ABV0@@Z               @548 
?TryLock@CThreadMutex@@QBA_NXZ                     @549 
??BCThreadSyncObject@@QAAPAXXZ                     @550 
??1CThreadSemaphore@@QAA@XZ                        @551 
?Lock@CThreadFullMutex@@QAAXXZ                     @552 
?Lock@CThreadFullMutex@@QAAXI@Z                    @553 
?Unlock@CThreadFullMutex@@QAAXXZ                   @554 
?AssertOwnedByCurrentThread@CThreadFullMutex@@QAA_NXZ @555 
?SetTrace@CThreadFullMutex@@QAAX_N@Z               @556 
??1CThreadFullMutex@@QAA@XZ                        @557 
??_FCThreadFullMutex@@QAAXXZ                       @558 
??1CThreadEvent@@QAA@XZ                            @559 
??_FCThreadEvent@@QAAXXZ                           @560 
?LockForWrite@CThreadRWLock@@QBAXXZ                @561 
?UnlockWrite@CThreadRWLock@@QBAXXZ                 @562 
??1CThreadRWLock@@QAA@XZ                           @563 
?LockForRead@CThreadSpinRWLock@@QBAXXZ             @564 
?UnlockRead@CThreadSpinRWLock@@QBAXXZ              @565 
?UnlockWrite@CThreadSpinRWLock@@QBAXXZ             @566 
??4CThreadSpinRWLock@@QAAAAV0@ABV0@@Z              @567 
?CalcStackDepth@CThread@@QAAIPAX@Z                 @568 
??1CWorkerThread@@UAA@XZ                           @569 
?Lock@CThreadMutex@@QAAXXZ                         @570 
?Unlock@CThreadMutex@@QAAXXZ                       @571 
?AssertOwnedByCurrentThread@CThreadMutex@@QAA_NXZ  @572 
?SetTrace@CThreadMutex@@QAAX_N@Z                   @573 
??0CThreadRWLock@@QAA@XZ                           @574 
?LockForRead@CThreadRWLock@@QAAXXZ                 @575 
?UnlockRead@CThreadRWLock@@QAAXXZ                  @576 
?AssignIf@CThreadSpinRWLock@@AAA_NABULockInfo_t@1@0@Z @577 
?TryLockForWrite@CThreadSpinRWLock@@AAA_NI@Z       @578 
?oldValue@?4??TryLockForWrite@CThreadSpinRWLock@@AAA_NI@Z@4ULockInfo_t@2@B @579 DATA
InitPME                                            @580 
ShutdownPME                                        @581 
?Lock@CThreadMutex@@QBAXXZ                         @582 
?Unlock@CThreadMutex@@QBAXXZ                       @583 
?LockForRead@CThreadRWLock@@QBAXXZ                 @584 
?UnlockRead@CThreadRWLock@@QBAXXZ                  @585 
??0CThreadSpinRWLock@@QAA@XZ                       @586 
?TryLockForRead@CThreadSpinRWLock@@QAA_NXZ         @587 
?TryLockForRead@CThreadSpinRWLock@@QBA_NXZ         @588 
?TryLockForWrite@CThreadSpinRWLock@@QAA_NXZ        @589 
?LockForWrite@CThreadSpinRWLock@@QAAXXZ            @590 
RunTSListTests                                     @591 
?TryLockForWrite@CThreadSpinRWLock@@QBA_NXZ        @592 
?LockForWrite@CThreadSpinRWLock@@QBAXXZ            @593 
RunTSQueueTests                                    @594 
?s_iCurrentUniqueNodeID@CVProfNode@@0HA            @595 DATA
??4CThreadLocalBase@@QAAAAV0@ABV0@@Z               @596 
?TryLock@CThreadMutex@@QBA_NXZ                     @597 
??BCThreadSyncObject@@QAAPAXXZ                     @598 
??1CThreadSemaphore@@QAA@XZ                        @599 
?Lock@CThreadFullMutex@@QAAXXZ                     @600 
?Lock@CThreadFullMutex@@QAAXI@Z                    @601 
?Unlock@CThreadFullMutex@@QAAXXZ                   @602 
?AssertOwnedByCurrentThread@CThreadFullMutex@@QAA_NXZ @603 
?SetTrace@CThreadFullMutex@@QAAX_N@Z               @604 
??1CThreadFullMutex@@QAA@XZ                        @605 
??_FCThreadFullMutex@@QAAXXZ                       @606 
??1CThreadEvent@@QAA@XZ                            @607 
??_FCThreadEvent@@QAAXXZ                           @608 
?LockForWrite@CThreadRWLock@@QBAXXZ                @609 
?UnlockWrite@CThreadRWLock@@QBAXXZ                 @610 
??1CThreadRWLock@@QAA@XZ                           @611 
?LockForRead@CThreadSpinRWLock@@QBAXXZ             @612 
?UnlockRead@CThreadSpinRWLock@@QBAXXZ              @613 
?UnlockWrite@CThreadSpinRWLock@@QBAXXZ             @614 
??4CThreadSpinRWLock@@QAAAAV0@ABV0@@Z              @615 
?CalcStackDepth@CThread@@QAAIPAX@Z                 @616 
??1CWorkerThread@@UAA@XZ                           @617 
?Lock@CThreadMutex@@QAAXXZ                         @618 
?Unlock@CThreadMutex@@QAAXXZ                       @619 
?AssertOwnedByCurrentThread@CThreadMutex@@QAA_NXZ  @620 
?SetTrace@CThreadMutex@@QAAX_N@Z                   @621 
??0CThreadRWLock@@QAA@XZ                           @622 
?LockForRead@CThreadRWLock@@QAAXXZ                 @623 
?UnlockRead@CThreadRWLock@@QAAXXZ                  @624 
?AssignIf@CThreadSpinRWLock@@AAA_NABULockInfo_t@1@0@Z @625 
?TryLockForWrite@CThreadSpinRWLock@@AAA_NI@Z       @626 
?oldValue@?4??TryLockForWrite@CThreadSpinRWLock@@AAA_NI@Z@4ULockInfo_t@2@B @627 DATA
?GetBudgetGroupID@CVProfNode@@QAAHXZ               @628 
?SetBudgetGroupID@CVProfNode@@QAAXH@Z              @629 
?SetClientData@CVProfNode@@QAAXH@Z                 @630 
?GetClientData@CVProfNode@@QBAHXZ                  @631 
?SetUniqueNodeID@CVProfNode@@AAAXH@Z               @632 
?GetUniqueNodeID@CVProfNode@@ABAHXZ                @633 
?EnableL2andLHS@CVProfNode@@QAAX_N@Z               @634 
?IsL2andLHSEnabled@CVProfNode@@QAA_NXZ             @635 
??4CVProfNode@@QAAAAV0@ABV0@@Z                     @636 
?DisableVTuneGroup@CVProfile@@QAAXXZ               @637 
?NumFramesSampled@CVProfile@@QAAHXZ                @638 
?PMEInitialized@CVProfile@@QAAX_N@Z                @639 
?PMEEnable@CVProfile@@QAAX_N@Z                     @640 
?UsePME@CVProfile@@QAA_NXZ                         @641 
?VTuneGroupEnabled@CVProfile@@IAA_NXZ              @642 
?VTuneGroupID@CVProfile@@IAAHXZ                    @643 
??4CVProfile@@QAAAAV0@ABV0@@Z                      @644 
?PushGroup@CVProfile@@QAAXH@Z                      @645 
?PopGroup@CVProfile@@QAAXXZ                        @646 
??1CVProfNode@@QAA@XZ                              @647 
?GetParent@CVProfNode@@QAAPAV1@XZ                  @648 
?GetSibling@CVProfNode@@QAAPAV1@XZ                 @649 
?GetChild@CVProfNode@@QAAPAV1@XZ                   @650 
?GetName@CVProfNode@@QAAPBDXZ                      @651 
?GetTotalCalls@CVProfNode@@QAAHXZ                  @652 
?GetCurCalls@CVProfNode@@QAAHXZ                    @653 
?GetPrevCalls@CVProfNode@@QAAHXZ                   @654 
?GetPrevL2CacheMissLessChildren@CVProfNode@@QAAHXZ @655 
?GetPrevLoadHitStoreLessChildren@CVProfNode@@QAAHXZ @656 
?GetL2CacheMisses@CVProfNode@@QAAHXZ               @657 
?GetLoadHitStores@CVProfNode@@QAAHXZ               @658 
?IsEnabled@CVProfile@@QBA_NXZ                      @659 
?GetDetailLevel@CVProfile@@QBAHXZ                  @660 
?AtRoot@CVProfile@@QBA_NXZ                         @661 
?GetRoot@CVProfile@@QAAPAVCVProfNode@@XZ           @662 
?GetBudgetGroupName@CVProfile@@QAAPBDH@Z           @663 
?GetBudgetGroupFlags@CVProfile@@QBAHH@Z            @664 
?GetCPUTraceMode@CVProfile@@QAA?AW4CPUTraceState@1@XZ @665 
?SetCPUTraceEnabled@CVProfile@@QAAXW4CPUTraceState@1@@Z @666 
?IncrementMultiTraceIndex@CVProfile@@QAAXXZ        @667 
?GetMultiTraceIndex@CVProfile@@QAAIXZ              @668 
?PMCDisableAllNodes@CVProfile@@QAAXPAVCVProfNode@@@Z @669 
?DumpEnabledPMCNodes@CVProfile@@QAAXXZ             @670 
?CPUTraceGetEnabledNode@CVProfile@@QAAPAVCVProfNode@@PAV2@@Z @671 
?GetCPUTraceFilename@CVProfile@@QAAPBDXZ           @672 
?CPUTraceDisableAllNodes@CVProfile@@QAAXPAVCVProfNode@@@Z @673 
?VXConsoleReportMode@CVProfile@@QAAXW4VXConsoleReportMode_t@1@@Z @674 
?VXConsoleReportScale@CVProfile@@QAAXW4VXConsoleReportMode_t@1@M@Z @675 
?GetBudgetGroupColor@CVProfile@@QAAXHAAH000@Z      @676 
?GetNumBudgetGroups@CVProfile@@QAAHXZ              @677 
?RegisterNumBudgetGroupsChangedCallBack@CVProfile@@QAAXP6AXXZ@Z @678 
?HideBudgetGroup@CVProfile@@QAAXH_N@Z              @679 
?ResetCounters@CVProfile@@QAAXW4CounterGroup_t@@@Z @680 
?GetNumCounters@CVProfile@@QBAHXZ                  @681 
?GetCounterName@CVProfile@@QBAPBDH@Z               @682 
?GetCounterValue@CVProfile@@QBAHH@Z                @683 
?GetCounterNameAndValue@CVProfile@@QBAPBDHAAH@Z    @684 
?GetCounterGroup@CVProfile@@QBA?AW4CounterGroup_t@@H@Z @685 
?Lock@CThreadMutex@@QBAXXZ                         @686 
?Unlock@CThreadMutex@@QBAXXZ                       @687 
?LockForRead@CThreadRWLock@@QBAXXZ                 @688 
?UnlockRead@CThreadRWLock@@QBAXXZ                  @689 
??0CThreadSpinRWLock@@QAA@XZ                       @690 
?TryLockForRead@CThreadSpinRWLock@@QAA_NXZ         @691 
?GetPrevSibling@CVProfNode@@QAAPAV1@XZ             @692 
?GetTotalTime@CVProfNode@@QAANXZ                   @693 
?GetCurTime@CVProfNode@@QAANXZ                     @694 
?GetPrevTime@CVProfNode@@QAANXZ                    @695 
?GetPeakTime@CVProfNode@@QAANXZ                    @696 
?GetTotalTimeLessChildren@CVProfNode@@QAANXZ       @697 
?GetCurTimeLessChildren@CVProfNode@@QAANXZ         @698 
?GetPrevTimeLessChildren@CVProfNode@@QAANXZ        @699 
?GetTotalTimeSampled@CVProfile@@QAANXZ             @700 
?GetPeakFrameTime@CVProfile@@QAANXZ                @701 
?GetTimeLastFrame@CVProfile@@QAANXZ                @702 
?EnterScope@CVProfNode@@QAAXXZ                     @703 
?Resume@CVProfNode@@QAAXXZ                         @704 
?FindNode@CVProfile@@QAAPAVCVProfNode@@PAV2@PBD@Z  @705 
?PMCEnableL2Upon@CVProfile@@QAA_NPBD_N@Z           @706 
?PMCDisableL2Upon@CVProfile@@QAA_NPBD_N@Z          @707 
?SetCPUTraceFilename@CVProfile@@QAAPBDPBD@Z        @708 
?CPUTraceEnableForNode@CVProfile@@QAAPAVCVProfNode@@PBD@Z @709 
?VXProfileStart@CVProfile@@QAAXXZ                  @710 
?VXProfileUpdate@CVProfile@@QAAXXZ                 @711 
?VXEnableUpdateMode@CVProfile@@QAAXH_N@Z           @712 
?FreeNodes_R@CVProfile@@IAAXPAVCVProfNode@@@Z      @713 
?Term@CVProfile@@QAAXXZ                            @714 
?FindBudgetGroupName@CVProfile@@IAAHPBD@Z          @715 
?AddBudgetGroupName@CVProfile@@IAAHPBDH@Z          @716 
?BudgetGroupNameToBudgetGroupID@CVProfile@@QAAHPBDH@Z @717 
?BudgetGroupNameToBudgetGroupID@CVProfile@@QAAHPBD@Z @718 
?FindOrCreateCounter@CVProfile@@QAAPAHPBDW4CounterGroup_t@@@Z @719 
?TryLockForRead@CThreadSpinRWLock@@QBA_NXZ         @720 
?TryLockForWrite@CThreadSpinRWLock@@QAA_NXZ        @721 
?LockForWrite@CThreadSpinRWLock@@QAAXXZ            @722 
?EnableVTuneGroup@CVProfile@@QAAXPBD@Z             @723 
?BudgetGroupNameToBudgetGroupIDNoCreate@CVProfile@@QAAHPBD@Z @724 
?HideBudgetGroup@CVProfile@@QAAXPBD_N@Z            @725 
?ClearPrevTime@CVProfNode@@QAAXXZ                  @726 
?Start@CVProfile@@QAAXXZ                           @727 
?Resume@CVProfile@@QAAXXZ                          @728 
?ExitScope@CVProfNode@@QAA_NXZ                     @729 
?Pause@CVProfNode@@QAAXXZ                          @730 
?Reset@CVProfNode@@QAAXXZ                          @731 
?MarkFrame@CVProfNode@@QAAXXZ                      @732 
?ResetPeak@CVProfNode@@QAAXXZ                      @733 
?SetCurFrameTime@CVProfNode@@QAAXK@Z               @734 
??1CVProfile@@QAA@XZ                               @735 
?TryLockForWrite@CThreadSpinRWLock@@QBA_NXZ        @736 
?LockForWrite@CThreadSpinRWLock@@QBAXXZ            @737 
??0CVProfNode@@QAA@PBDHPAV0@0H@Z                   @738 
?Stop@CVProfile@@QAAXXZ                            @739 
?ExitScope@CVProfile@@QAAXXZ                       @740 
?Pause@CVProfile@@QAAXXZ                           @741 
?Reset@CVProfile@@QAAXXZ                           @742 
?ResetPeaks@CVProfile@@QAAXXZ                      @743 
?MarkFrame@CVProfile@@QAAXXZ                       @744 
?GetSubNode@CVProfNode@@QAAPAV1@PBDH0H@Z           @745 
?GetSubNode@CVProfNode@@QAAPAV1@PBDH0@Z            @746 
??0CVProfile@@QAA@XZ                               @747 
?EnterScope@CVProfile@@QAAXPBDH0_NH@Z              @748 
?EnterScope@CVProfile@@QAAXPBDH0_N@Z               @749 
?DumpNodes@CVProfile@@IAAXPAVCVProfNode@@H_N@Z     @750 
?SumTimes@CVProfile@@IAAXPAVCVProfNode@@H@Z        @751 
?SumTimes@CVProfile@@IAAXPBDH@Z                    @752 
?OutputReport@CVProfile@@QAAXHPBDH@Z               @753 
g_VProfCurrentProfile                              @754 DATA
g_pXboxConsole                                     @755 DATA
XboxConsoleInit                                    @756 
InitPME                                            @757 
ShutdownPME                                        @758 
XBX_Error                                          @759 
XBX_OutputDebugStringA                             @760 
XBX_QueueEvent                                     @761 
XBX_NotifyCreateListener                           @762 
XBX_GetLanguageString                              @763 
XBX_IsLocalized                                    @764 
XBX_GetStorageDeviceId                             @765 
XBX_SetStorageDeviceId                             @766 
XBX_GetPrimaryUserId                               @767 
XBX_SetPrimaryUserId                               @768 
XBX_GetInviteSessionId                             @769 
XBX_SetInviteSessionId                             @770 
XBX_GetInvitedUserId                               @771 
XBX_SetInvitedUserId                               @772 
XboxLaunch                                         @773 
XBX_ProcessEvents                                  @774 
g_dwProcessAffinityMask                            @775 DATA
InitPME                                            @776 
ShutdownPME                                        @777 
MessageBox                                         @778 
GetWindowLong                                      @779 
GetWindowLongPtr                                   @780 
SetWindowLong                                      @781 
SetWindowLongPtr                                   @782 
DestroyWindow                                      @783 
RegisterClassEx                                    @784 
RegisterClass                                      @785 
GetFocus                                           @786 
SetFocus                                           @787 
CallWindowProc                                     @788 
GetSystemMetrics                                   @789 
ShowWindow                                         @790 
SendMessage                                        @791 
SendMessageTimeout                                 @792 
GetClientRect                                      @793 
GetDeviceCaps                                      @794 
SetWindowPos                                       @795 
XBX_unlink                                         @796 
XBX_mkdir                                          @797 
XBX_getcwd                                         @798 
XBX_access                                         @799 
XBX_GetCurrentDirectory                            @800 
XBX_GetModuleFileName                              @801 
CreateWindow                                       @802 
CreateWindowEx                                     @803 
; Do not modify this line! MAX_ORDINAL:803
